target datalayout = "e-m:e-p270:32:32-p271:32:32-p272:64:64-i64:64-i128:128-f80:128-n8:16:32:64-S128"
target triple = "x86_64-pc-linux-gnu"

%"class.b3ConvexHullInternal::Int128" = type { i64, i64 }
%"class.b3ConvexHullInternal::Rational128" = type <{ %"class.b3ConvexHullInternal::Int128", %"class.b3ConvexHullInternal::Int128", i32, i8, [3 x i8] }>

; Function Attrs: mustprogress nounwind uwtable
define linkonce_odr dso_local void @_ZN20b3ConvexHullInternal4DMulImjE7shlHalfERm(ptr noundef nonnull align 8 dereferenceable(8) %0) #3 comdat align 2 {
  %2 = alloca ptr, align 8
  store ptr %0, ptr %2, align 8, !tbaa !19
  %3 = load ptr, ptr %2, align 8, !tbaa !19
  %4 = load i64, ptr %3, align 8, !tbaa !9
  %5 = shl i64 %4, 32
  store i64 %5, ptr %3, align 8, !tbaa !9
  ret void
}

; Function Attrs: mustprogress nounwind uwtable
define linkonce_odr dso_local noundef i32 @_ZN20b3ConvexHullInternal4DMulImjE4highEm(i64 noundef %0) #3 comdat align 2 {
  %2 = alloca i64, align 8
  store i64 %0, ptr %2, align 8, !tbaa !9
  %3 = load i64, ptr %2, align 8, !tbaa !9
  %4 = lshr i64 %3, 32
  %5 = trunc i64 %4 to i32
  ret i32 %5
}

; Function Attrs: mustprogress nounwind uwtable
define linkonce_odr dso_local noundef i64 @_ZN20b3ConvexHullInternal4DMulImjE3mulEjj(i32 noundef %0, i32 noundef %1) #3 comdat align 2 {
  %3 = alloca i32, align 4
  %4 = alloca i32, align 4
  store i32 %0, ptr %3, align 4, !tbaa !34
  store i32 %1, ptr %4, align 4, !tbaa !34
  %5 = load i32, ptr %3, align 4, !tbaa !34
  %6 = zext i32 %5 to i64
  %7 = load i32, ptr %4, align 4, !tbaa !34
  %8 = zext i32 %7 to i64
  %9 = mul i64 %6, %8
  ret i64 %9
}

; Function Attrs: mustprogress nounwind uwtable
define linkonce_odr dso_local noundef i32 @_ZN20b3ConvexHullInternal4DMulImjE3lowEm(i64 noundef %0) #3 comdat align 2 {
  %2 = alloca i64, align 8
  store i64 %0, ptr %2, align 8, !tbaa !9
  %3 = load i64, ptr %2, align 8, !tbaa !9
  %4 = trunc i64 %3 to i32
  ret i32 %4
}

; Function Attrs: mustprogress uwtable
define linkonce_odr dso_local void @_ZN20b3ConvexHullInternal4DMulImjE3mulEmmRmS2_(i64 noundef %0, i64 noundef %1, ptr noundef nonnull align 8 dereferenceable(8) %2, ptr noundef nonnull align 8 dereferenceable(8) %3) #0 comdat align 2 {
  %5 = alloca i64, align 8
  %6 = alloca i64, align 8
  %7 = alloca ptr, align 8
  %8 = alloca ptr, align 8
  %9 = alloca i64, align 8
  %10 = alloca i64, align 8
  %11 = alloca i64, align 8
  %12 = alloca i64, align 8
  %13 = alloca i64, align 8
  store i64 %0, ptr %5, align 8, !tbaa !9
  store i64 %1, ptr %6, align 8, !tbaa !9
  store ptr %2, ptr %7, align 8, !tbaa !19
  store ptr %3, ptr %8, align 8, !tbaa !19
  call void @llvm.lifetime.start.p0(i64 8, ptr %9) #13
  %14 = load i64, ptr %5, align 8, !tbaa !9
  %15 = call noundef i32 @_ZN20b3ConvexHullInternal4DMulImjE3lowEm(i64 noundef %14)
  %16 = load i64, ptr %6, align 8, !tbaa !9
  %17 = call noundef i32 @_ZN20b3ConvexHullInternal4DMulImjE3lowEm(i64 noundef %16)
  %18 = call noundef i64 @_ZN20b3ConvexHullInternal4DMulImjE3mulEjj(i32 noundef %15, i32 noundef %17)
  store i64 %18, ptr %9, align 8, !tbaa !9
  call void @llvm.lifetime.start.p0(i64 8, ptr %10) #13
  %19 = load i64, ptr %5, align 8, !tbaa !9
  %20 = call noundef i32 @_ZN20b3ConvexHullInternal4DMulImjE3lowEm(i64 noundef %19)
  %21 = load i64, ptr %6, align 8, !tbaa !9
  %22 = call noundef i32 @_ZN20b3ConvexHullInternal4DMulImjE4highEm(i64 noundef %21)
  %23 = call noundef i64 @_ZN20b3ConvexHullInternal4DMulImjE3mulEjj(i32 noundef %20, i32 noundef %22)
  store i64 %23, ptr %10, align 8, !tbaa !9
  call void @llvm.lifetime.start.p0(i64 8, ptr %11) #13
  %24 = load i64, ptr %5, align 8, !tbaa !9
  %25 = call noundef i32 @_ZN20b3ConvexHullInternal4DMulImjE4highEm(i64 noundef %24)
  %26 = load i64, ptr %6, align 8, !tbaa !9
  %27 = call noundef i32 @_ZN20b3ConvexHullInternal4DMulImjE3lowEm(i64 noundef %26)
  %28 = call noundef i64 @_ZN20b3ConvexHullInternal4DMulImjE3mulEjj(i32 noundef %25, i32 noundef %27)
  store i64 %28, ptr %11, align 8, !tbaa !9
  call void @llvm.lifetime.start.p0(i64 8, ptr %12) #13
  %29 = load i64, ptr %5, align 8, !tbaa !9
  %30 = call noundef i32 @_ZN20b3ConvexHullInternal4DMulImjE4highEm(i64 noundef %29)
  %31 = load i64, ptr %6, align 8, !tbaa !9
  %32 = call noundef i32 @_ZN20b3ConvexHullInternal4DMulImjE4highEm(i64 noundef %31)
  %33 = call noundef i64 @_ZN20b3ConvexHullInternal4DMulImjE3mulEjj(i32 noundef %30, i32 noundef %32)
  store i64 %33, ptr %12, align 8, !tbaa !9
  call void @llvm.lifetime.start.p0(i64 8, ptr %13) #13
  %34 = load i64, ptr %10, align 8, !tbaa !9
  %35 = call noundef i32 @_ZN20b3ConvexHullInternal4DMulImjE3lowEm(i64 noundef %34)
  %36 = zext i32 %35 to i64
  %37 = load i64, ptr %11, align 8, !tbaa !9
  %38 = call noundef i32 @_ZN20b3ConvexHullInternal4DMulImjE3lowEm(i64 noundef %37)
  %39 = zext i32 %38 to i64
  %40 = add i64 %36, %39
  store i64 %40, ptr %13, align 8, !tbaa !9
  %41 = load i64, ptr %10, align 8, !tbaa !9
  %42 = call noundef i32 @_ZN20b3ConvexHullInternal4DMulImjE4highEm(i64 noundef %41)
  %43 = zext i32 %42 to i64
  %44 = load i64, ptr %12, align 8, !tbaa !9
  %45 = add i64 %44, %43
  store i64 %45, ptr %12, align 8, !tbaa !9
  %46 = load i64, ptr %11, align 8, !tbaa !9
  %47 = call noundef i32 @_ZN20b3ConvexHullInternal4DMulImjE4highEm(i64 noundef %46)
  %48 = zext i32 %47 to i64
  %49 = load i64, ptr %12, align 8, !tbaa !9
  %50 = add i64 %49, %48
  store i64 %50, ptr %12, align 8, !tbaa !9
  %51 = load i64, ptr %13, align 8, !tbaa !9
  %52 = call noundef i32 @_ZN20b3ConvexHullInternal4DMulImjE4highEm(i64 noundef %51)
  %53 = zext i32 %52 to i64
  %54 = load i64, ptr %12, align 8, !tbaa !9
  %55 = add i64 %54, %53
  store i64 %55, ptr %12, align 8, !tbaa !9
  call void @_ZN20b3ConvexHullInternal4DMulImjE7shlHalfERm(ptr noundef nonnull align 8 dereferenceable(8) %13)
  %56 = load i64, ptr %13, align 8, !tbaa !9
  %57 = load i64, ptr %9, align 8, !tbaa !9
  %58 = add i64 %57, %56
  store i64 %58, ptr %9, align 8, !tbaa !9
  %59 = load i64, ptr %9, align 8, !tbaa !9
  %60 = load i64, ptr %13, align 8, !tbaa !9
  %61 = icmp ult i64 %59, %60
  br i1 %61, label %62, label %65

62:                                               ; preds = %4
  %63 = load i64, ptr %12, align 8, !tbaa !9
  %64 = add i64 %63, 1
  store i64 %64, ptr %12, align 8, !tbaa !9
  br label %65

65:                                               ; preds = %62, %4
  %66 = load i64, ptr %9, align 8, !tbaa !9
  %67 = load ptr, ptr %7, align 8, !tbaa !19
  store i64 %66, ptr %67, align 8, !tbaa !9
  %68 = load i64, ptr %12, align 8, !tbaa !9
  %69 = load ptr, ptr %8, align 8, !tbaa !19
  store i64 %68, ptr %69, align 8, !tbaa !9
  call void @llvm.lifetime.end.p0(i64 8, ptr %13) #13
  call void @llvm.lifetime.end.p0(i64 8, ptr %12) #13
  call void @llvm.lifetime.end.p0(i64 8, ptr %11) #13
  call void @llvm.lifetime.end.p0(i64 8, ptr %10) #13
  call void @llvm.lifetime.end.p0(i64 8, ptr %9) #13
  ret void
}

; Function Attrs: mustprogress nounwind uwtable
define linkonce_odr dso_local void @_ZN20b3ConvexHullInternal6Int128C2Ev(ptr noundef nonnull align 8 dereferenceable(16) %0) unnamed_addr #3 comdat align 2 {
  %2 = alloca ptr, align 8
  store ptr %0, ptr %2, align 8, !tbaa !4
  ret void
}

; Function Attrs: mustprogress nounwind uwtable
define linkonce_odr dso_local void @_ZN20b3ConvexHullInternal6Int128C2Emm(ptr noundef nonnull align 8 dereferenceable(16) %0, i64 noundef %1, i64 noundef %2) unnamed_addr #3 comdat align 2 {
  %4 = alloca ptr, align 8
  %5 = alloca i64, align 8
  %6 = alloca i64, align 8
  store ptr %0, ptr %4, align 8, !tbaa !4
  store i64 %1, ptr %5, align 8, !tbaa !9
  store i64 %2, ptr %6, align 8, !tbaa !9
  %7 = load ptr, ptr %4, align 8
  %8 = getelementptr inbounds nuw %"class.b3ConvexHullInternal::Int128", ptr %7, i32 0, i32 0
  %9 = load i64, ptr %5, align 8, !tbaa !9
  store i64 %9, ptr %8, align 8, !tbaa !18
  %10 = getelementptr inbounds nuw %"class.b3ConvexHullInternal::Int128", ptr %7, i32 0, i32 1
  %11 = load i64, ptr %6, align 8, !tbaa !9
  store i64 %11, ptr %10, align 8, !tbaa !11
  ret void
}

; Function Attrs: mustprogress uwtable
define dso_local { i64, i64 } @_ZN20b3ConvexHullInternal6Int1283mulEmm(i64 noundef %0, i64 noundef %1) #0 align 2 {
  %3 = alloca %"class.b3ConvexHullInternal::Int128", align 8
  %4 = alloca i64, align 8
  %5 = alloca i64, align 8
  store i64 %0, ptr %4, align 8, !tbaa !9
  store i64 %1, ptr %5, align 8, !tbaa !9
  call void @_ZN20b3ConvexHullInternal6Int128C2Ev(ptr noundef nonnull align 8 dereferenceable(16) %3)
  %6 = load i64, ptr %4, align 8, !tbaa !9
  %7 = load i64, ptr %5, align 8, !tbaa !9
  %8 = getelementptr inbounds nuw %"class.b3ConvexHullInternal::Int128", ptr %3, i32 0, i32 0
  %9 = getelementptr inbounds nuw %"class.b3ConvexHullInternal::Int128", ptr %3, i32 0, i32 1
  call void @_ZN20b3ConvexHullInternal4DMulImjE3mulEmmRmS2_(i64 noundef %6, i64 noundef %7, ptr noundef nonnull align 8 dereferenceable(8) %8, ptr noundef nonnull align 8 dereferenceable(8) %9)
  %10 = load { i64, i64 }, ptr %3, align 8
  ret { i64, i64 } %10
}

; Function Attrs: mustprogress uwtable
define linkonce_odr dso_local { i64, i64 } @_ZNK20b3ConvexHullInternal6Int128ngEv(ptr noundef nonnull align 8 dereferenceable(16) %0) #0 comdat align 2 {
  %2 = alloca %"class.b3ConvexHullInternal::Int128", align 8
  %3 = alloca ptr, align 8
  store ptr %0, ptr %3, align 8, !tbaa !4
  %4 = load ptr, ptr %3, align 8
  %5 = getelementptr inbounds nuw %"class.b3ConvexHullInternal::Int128", ptr %4, i32 0, i32 0
  %6 = load i64, ptr %5, align 8, !tbaa !18
  %7 = sub nsw i64 0, %6
  %8 = getelementptr inbounds nuw %"class.b3ConvexHullInternal::Int128", ptr %4, i32 0, i32 1
  %9 = load i64, ptr %8, align 8, !tbaa !11
  %10 = xor i64 %9, -1
  %11 = getelementptr inbounds nuw %"class.b3ConvexHullInternal::Int128", ptr %4, i32 0, i32 0
  %12 = load i64, ptr %11, align 8, !tbaa !18
  %13 = icmp eq i64 %12, 0
  %14 = zext i1 %13 to i64
  %15 = add i64 %10, %14
  call void @_ZN20b3ConvexHullInternal6Int128C2Emm(ptr noundef nonnull align 8 dereferenceable(16) %2, i64 noundef %7, i64 noundef %15)
  %16 = load { i64, i64 }, ptr %2, align 8
  ret { i64, i64 } %16
}

; Function Attrs: mustprogress nounwind uwtable
define linkonce_odr dso_local noundef i32 @_ZNK20b3ConvexHullInternal6Int1284ucmpERKS0_(ptr noundef nonnull align 8 dereferenceable(16) %0, ptr noundef nonnull align 8 dereferenceable(16) %1) #3 comdat align 2 {
  %3 = alloca i32, align 4
  %4 = alloca ptr, align 8
  %5 = alloca ptr, align 8
  store ptr %0, ptr %4, align 8, !tbaa !4
  store ptr %1, ptr %5, align 8, !tbaa !4
  %6 = load ptr, ptr %4, align 8
  %7 = getelementptr inbounds nuw %"class.b3ConvexHullInternal::Int128", ptr %6, i32 0, i32 1
  %8 = load i64, ptr %7, align 8, !tbaa !11
  %9 = load ptr, ptr %5, align 8, !tbaa !4
  %10 = getelementptr inbounds nuw %"class.b3ConvexHullInternal::Int128", ptr %9, i32 0, i32 1
  %11 = load i64, ptr %10, align 8, !tbaa !11
  %12 = icmp ult i64 %8, %11
  br i1 %12, label %13, label %14

13:                                               ; preds = %2
  store i32 -1, ptr %3, align 4
  br label %39

14:                                               ; preds = %2
  %15 = getelementptr inbounds nuw %"class.b3ConvexHullInternal::Int128", ptr %6, i32 0, i32 1
  %16 = load i64, ptr %15, align 8, !tbaa !11
  %17 = load ptr, ptr %5, align 8, !tbaa !4
  %18 = getelementptr inbounds nuw %"class.b3ConvexHullInternal::Int128", ptr %17, i32 0, i32 1
  %19 = load i64, ptr %18, align 8, !tbaa !11
  %20 = icmp ugt i64 %16, %19
  br i1 %20, label %21, label %22

21:                                               ; preds = %14
  store i32 1, ptr %3, align 4
  br label %39

22:                                               ; preds = %14
  %23 = getelementptr inbounds nuw %"class.b3ConvexHullInternal::Int128", ptr %6, i32 0, i32 0
  %24 = load i64, ptr %23, align 8, !tbaa !18
  %25 = load ptr, ptr %5, align 8, !tbaa !4
  %26 = getelementptr inbounds nuw %"class.b3ConvexHullInternal::Int128", ptr %25, i32 0, i32 0
  %27 = load i64, ptr %26, align 8, !tbaa !18
  %28 = icmp ult i64 %24, %27
  br i1 %28, label %29, label %30

29:                                               ; preds = %22
  store i32 -1, ptr %3, align 4
  br label %39

30:                                               ; preds = %22
  %31 = getelementptr inbounds nuw %"class.b3ConvexHullInternal::Int128", ptr %6, i32 0, i32 0
  %32 = load i64, ptr %31, align 8, !tbaa !18
  %33 = load ptr, ptr %5, align 8, !tbaa !4
  %34 = getelementptr inbounds nuw %"class.b3ConvexHullInternal::Int128", ptr %33, i32 0, i32 0
  %35 = load i64, ptr %34, align 8, !tbaa !18
  %36 = icmp ugt i64 %32, %35
  br i1 %36, label %37, label %38

37:                                               ; preds = %30
  store i32 1, ptr %3, align 4
  br label %39

38:                                               ; preds = %30
  store i32 0, ptr %3, align 4
  br label %39

39:                                               ; preds = %38, %37, %29, %21, %13
  %40 = load i32, ptr %3, align 4
  ret i32 %40
}

; Function Attrs: mustprogress uwtable
define dso_local { i64, i64 } @_ZNK20b3ConvexHullInternal6Int128mlEl(ptr noundef nonnull align 8 dereferenceable(16) %0, i64 noundef %1) #0 align 2 {
  %3 = alloca %"class.b3ConvexHullInternal::Int128", align 8
  %4 = alloca ptr, align 8
  %5 = alloca i64, align 8
  %6 = alloca i8, align 1
  %7 = alloca %"class.b3ConvexHullInternal::Int128", align 8
  %8 = alloca %"class.b3ConvexHullInternal::Int128", align 8
  store ptr %0, ptr %4, align 8, !tbaa !4
  store i64 %1, ptr %5, align 8, !tbaa !9
  %9 = load ptr, ptr %4, align 8
  call void @llvm.lifetime.start.p0(i64 1, ptr %6) #13
  %10 = getelementptr inbounds nuw %"class.b3ConvexHullInternal::Int128", ptr %9, i32 0, i32 1
  %11 = load i64, ptr %10, align 8, !tbaa !11
  %12 = icmp slt i64 %11, 0
  %13 = zext i1 %12 to i8
  store i8 %13, ptr %6, align 1, !tbaa !13
  call void @llvm.lifetime.start.p0(i64 16, ptr %7) #13
  %14 = load i8, ptr %6, align 1, !tbaa !13, !range !15, !noundef !16
  %15 = trunc i8 %14 to i1
  br i1 %15, label %16, label %22

16:                                               ; preds = %2
  %17 = call { i64, i64 } @_ZNK20b3ConvexHullInternal6Int128ngEv(ptr noundef nonnull align 8 dereferenceable(16) %9)
  %18 = getelementptr inbounds nuw { i64, i64 }, ptr %7, i32 0, i32 0
  %19 = extractvalue { i64, i64 } %17, 0
  store i64 %19, ptr %18, align 8
  %20 = getelementptr inbounds nuw { i64, i64 }, ptr %7, i32 0, i32 1
  %21 = extractvalue { i64, i64 } %17, 1
  store i64 %21, ptr %20, align 8
  br label %23

22:                                               ; preds = %2
  call void @llvm.memcpy.p0.p0.i64(ptr align 8 %7, ptr align 8 %9, i64 16, i1 false), !tbaa.struct !17
  br label %23

23:                                               ; preds = %22, %16
  %24 = load i64, ptr %5, align 8, !tbaa !9
  %25 = icmp slt i64 %24, 0
  br i1 %25, label %26, label %33

26:                                               ; preds = %23
  %27 = load i8, ptr %6, align 1, !tbaa !13, !range !15, !noundef !16
  %28 = trunc i8 %27 to i1
  %29 = xor i1 %28, true
  %30 = zext i1 %29 to i8
  store i8 %30, ptr %6, align 1, !tbaa !13
  %31 = load i64, ptr %5, align 8, !tbaa !9
  %32 = sub nsw i64 0, %31
  store i64 %32, ptr %5, align 8, !tbaa !9
  br label %33

33:                                               ; preds = %26, %23
  call void @llvm.lifetime.start.p0(i64 16, ptr %8) #13
  %34 = getelementptr inbounds nuw %"class.b3ConvexHullInternal::Int128", ptr %7, i32 0, i32 0
  %35 = load i64, ptr %34, align 8, !tbaa !18
  %36 = load i64, ptr %5, align 8, !tbaa !9
  %37 = call { i64, i64 } @_ZN20b3ConvexHullInternal6Int1283mulEmm(i64 noundef %35, i64 noundef %36)
  %38 = getelementptr inbounds nuw { i64, i64 }, ptr %8, i32 0, i32 0
  %39 = extractvalue { i64, i64 } %37, 0
  store i64 %39, ptr %38, align 8
  %40 = getelementptr inbounds nuw { i64, i64 }, ptr %8, i32 0, i32 1
  %41 = extractvalue { i64, i64 } %37, 1
  store i64 %41, ptr %40, align 8
  %42 = getelementptr inbounds nuw %"class.b3ConvexHullInternal::Int128", ptr %7, i32 0, i32 1
  %43 = load i64, ptr %42, align 8, !tbaa !11
  %44 = load i64, ptr %5, align 8, !tbaa !9
  %45 = mul i64 %43, %44
  %46 = getelementptr inbounds nuw %"class.b3ConvexHullInternal::Int128", ptr %8, i32 0, i32 1
  %47 = load i64, ptr %46, align 8, !tbaa !11
  %48 = add i64 %47, %45
  store i64 %48, ptr %46, align 8, !tbaa !11
  %49 = load i8, ptr %6, align 1, !tbaa !13, !range !15, !noundef !16
  %50 = trunc i8 %49 to i1
  br i1 %50, label %51, label %57

51:                                               ; preds = %33
  %52 = call { i64, i64 } @_ZNK20b3ConvexHullInternal6Int128ngEv(ptr noundef nonnull align 8 dereferenceable(16) %8)
  %53 = getelementptr inbounds nuw { i64, i64 }, ptr %3, i32 0, i32 0
  %54 = extractvalue { i64, i64 } %52, 0
  store i64 %54, ptr %53, align 8
  %55 = getelementptr inbounds nuw { i64, i64 }, ptr %3, i32 0, i32 1
  %56 = extractvalue { i64, i64 } %52, 1
  store i64 %56, ptr %55, align 8
  br label %58

57:                                               ; preds = %33
  call void @llvm.memcpy.p0.p0.i64(ptr align 8 %3, ptr align 8 %8, i64 16, i1 false), !tbaa.struct !17
  br label %58

58:                                               ; preds = %57, %51
  call void @llvm.lifetime.end.p0(i64 16, ptr %8) #13
  call void @llvm.lifetime.end.p0(i64 16, ptr %7) #13
  call void @llvm.lifetime.end.p0(i64 1, ptr %6) #13
  %59 = load { i64, i64 }, ptr %3, align 8
  ret { i64, i64 } %59
}

; Function Attrs: mustprogress uwtable
define dso_local noundef i32 @_ZNK20b3ConvexHullInternal11Rational1287compareEl(ptr noundef nonnull align 8 dereferenceable(37) %0, i64 noundef %1) #0 align 2 {
  %3 = alloca i32, align 4
  %4 = alloca ptr, align 8
  %5 = alloca i64, align 8
  %6 = alloca i64, align 8
  %7 = alloca %"class.b3ConvexHullInternal::Int128", align 8
  store ptr %0, ptr %4, align 8, !tbaa !28
  store i64 %1, ptr %5, align 8, !tbaa !9
  %8 = load ptr, ptr %4, align 8
  %9 = getelementptr inbounds nuw %"class.b3ConvexHullInternal::Rational128", ptr %8, i32 0, i32 3
  %10 = load i8, ptr %9, align 4, !tbaa !32, !range !15, !noundef !16
  %11 = trunc i8 %10 to i1
  br i1 %11, label %12, label %31

12:                                               ; preds = %2
  call void @llvm.lifetime.start.p0(i64 8, ptr %6) #13
  %13 = getelementptr inbounds nuw %"class.b3ConvexHullInternal::Rational128", ptr %8, i32 0, i32 2
  %14 = load i32, ptr %13, align 8, !tbaa !30
  %15 = sext i32 %14 to i64
  %16 = getelementptr inbounds nuw %"class.b3ConvexHullInternal::Rational128", ptr %8, i32 0, i32 0
  %17 = getelementptr inbounds nuw %"class.b3ConvexHullInternal::Int128", ptr %16, i32 0, i32 0
  %18 = load i64, ptr %17, align 8, !tbaa !33
  %19 = mul nsw i64 %15, %18
  store i64 %19, ptr %6, align 8, !tbaa !9
  %20 = load i64, ptr %6, align 8, !tbaa !9
  %21 = load i64, ptr %5, align 8, !tbaa !9
  %22 = icmp sgt i64 %20, %21
  br i1 %22, label %23, label %24

23:                                               ; preds = %12
  br label %29

24:                                               ; preds = %12
  %25 = load i64, ptr %6, align 8, !tbaa !9
  %26 = load i64, ptr %5, align 8, !tbaa !9
  %27 = icmp slt i64 %25, %26
  %28 = select i1 %27, i32 -1, i32 0
  br label %29

29:                                               ; preds = %24, %23
  %30 = phi i32 [ 1, %23 ], [ %28, %24 ]
  store i32 %30, ptr %3, align 4
  call void @llvm.lifetime.end.p0(i64 8, ptr %6) #13
  br label %68

31:                                               ; preds = %2
  %32 = load i64, ptr %5, align 8, !tbaa !9
  %33 = icmp sgt i64 %32, 0
  br i1 %33, label %34, label %40

34:                                               ; preds = %31
  %35 = getelementptr inbounds nuw %"class.b3ConvexHullInternal::Rational128", ptr %8, i32 0, i32 2
  %36 = load i32, ptr %35, align 8, !tbaa !30
  %37 = icmp sle i32 %36, 0
  br i1 %37, label %38, label %39

38:                                               ; preds = %34
  store i32 -1, ptr %3, align 4
  br label %68

39:                                               ; preds = %34
  br label %55

40:                                               ; preds = %31
  %41 = load i64, ptr %5, align 8, !tbaa !9
  %42 = icmp slt i64 %41, 0
  br i1 %42, label %43, label %51

43:                                               ; preds = %40
  %44 = getelementptr inbounds nuw %"class.b3ConvexHullInternal::Rational128", ptr %8, i32 0, i32 2
  %45 = load i32, ptr %44, align 8, !tbaa !30
  %46 = icmp sge i32 %45, 0
  br i1 %46, label %47, label %48

47:                                               ; preds = %43
  store i32 1, ptr %3, align 4
  br label %68

48:                                               ; preds = %43
  %49 = load i64, ptr %5, align 8, !tbaa !9
  %50 = sub nsw i64 0, %49
  store i64 %50, ptr %5, align 8, !tbaa !9
  br label %54

51:                                               ; preds = %40
  %52 = getelementptr inbounds nuw %"class.b3ConvexHullInternal::Rational128", ptr %8, i32 0, i32 2
  %53 = load i32, ptr %52, align 8, !tbaa !30
  store i32 %53, ptr %3, align 4
  br label %68

54:                                               ; preds = %48
  br label %55

55:                                               ; preds = %54, %39
  %56 = getelementptr inbounds nuw %"class.b3ConvexHullInternal::Rational128", ptr %8, i32 0, i32 0
  call void @llvm.lifetime.start.p0(i64 16, ptr %7) #13
  %57 = getelementptr inbounds nuw %"class.b3ConvexHullInternal::Rational128", ptr %8, i32 0, i32 1
  %58 = load i64, ptr %5, align 8, !tbaa !9
  %59 = call { i64, i64 } @_ZNK20b3ConvexHullInternal6Int128mlEl(ptr noundef nonnull align 8 dereferenceable(16) %57, i64 noundef %58)
  %60 = getelementptr inbounds nuw { i64, i64 }, ptr %7, i32 0, i32 0
  %61 = extractvalue { i64, i64 } %59, 0
  store i64 %61, ptr %60, align 8
  %62 = getelementptr inbounds nuw { i64, i64 }, ptr %7, i32 0, i32 1
  %63 = extractvalue { i64, i64 } %59, 1
  store i64 %63, ptr %62, align 8
  %64 = call noundef i32 @_ZNK20b3ConvexHullInternal6Int1284ucmpERKS0_(ptr noundef nonnull align 8 dereferenceable(16) %56, ptr noundef nonnull align 8 dereferenceable(16) %7)
  %65 = getelementptr inbounds nuw %"class.b3ConvexHullInternal::Rational128", ptr %8, i32 0, i32 2
  %66 = load i32, ptr %65, align 8, !tbaa !30
  %67 = mul nsw i32 %64, %66
  store i32 %67, ptr %3, align 4
  call void @llvm.lifetime.end.p0(i64 16, ptr %7) #13
  br label %68

68:                                               ; preds = %55, %51, %47, %38, %29
  %69 = load i32, ptr %3, align 4
  ret i32 %69
}