; Function Attrs: mustprogress nofree norecurse nosync nounwind willreturn memory(argmem: read) uwtable
define dso_local noundef i32 @_ZNK20b3ConvexHullInternal11Rational1287compareEl(ptr noundef nonnull readonly align 8 captures(none) dereferenceable(37) %0, i64 noundef %1) local_unnamed_addr #0 align 2 {
  %3 = getelementptr inbounds nuw i8, ptr %0, i64 36
  %4 = load i8, ptr %3, align 4, !tbaa !18, !range !19, !noundef !20
  %5 = trunc nuw i8 %4 to i1
  br i1 %5, label %6, label %13

6:                                                ; preds = %2
  %7 = getelementptr inbounds nuw i8, ptr %0, i64 32
  %8 = load i32, ptr %7, align 8, !tbaa !15
  %9 = sext i32 %8 to i64
  %10 = load i64, ptr %0, align 8, !tbaa !21
  %11 = mul nsw i64 %10, %9
  %12 = tail call i32 @llvm.scmp.i32.i64(i64 %11, i64 %1)
  br label %81

13:                                               ; preds = %2
  %14 = icmp sgt i64 %1, 0
  br i1 %14, label %15, label %19

15:                                               ; preds = %13
  %16 = getelementptr inbounds nuw i8, ptr %0, i64 32
  %17 = load i32, ptr %16, align 8, !tbaa !15
  %18 = icmp slt i32 %17, 1
  br i1 %18, label %81, label %27

19:                                               ; preds = %13
  %20 = icmp slt i64 %1, 0
  %21 = getelementptr inbounds nuw i8, ptr %0, i64 32
  %22 = load i32, ptr %21, align 8, !tbaa !15
  br i1 %20, label %23, label %81

23:                                               ; preds = %19
  %24 = icmp sgt i32 %22, -1
  br i1 %24, label %81, label %25

25:                                               ; preds = %23
  %26 = sub nsw i64 0, %1
  br label %27

27:                                               ; preds = %15, %25
  %28 = phi i32 [ %17, %15 ], [ %22, %25 ]
  %.09 = phi i64 [ %1, %15 ], [ %26, %25 ]
  %29 = getelementptr inbounds nuw i8, ptr %0, i64 16
  %30 = getelementptr inbounds nuw i8, ptr %0, i64 24
  %31 = load i64, ptr %30, align 8, !tbaa !4
  %32 = icmp sgt i64 %31, -1
  %.sroa.0.0.copyload.i = load i64, ptr %29, align 8, !tbaa !9
  br i1 %32, label %39, label %33

33:                                               ; preds = %27
  %34 = sub nsw i64 0, %.sroa.0.0.copyload.i
  %35 = xor i64 %31, -1
  %36 = icmp eq i64 %.sroa.0.0.copyload.i, 0
  %37 = zext i1 %36 to i64
  %38 = add nuw i64 %37, %35
  br label %39

39:                                               ; preds = %33, %27
  %.sroa.5.0.i = phi i64 [ %38, %33 ], [ %31, %27 ]
  %.sroa.0.0.i = phi i64 [ %34, %33 ], [ %.sroa.0.0.copyload.i, %27 ]
  %40 = xor i64 %31, %.09
  %spec.select11.i = icmp slt i64 %40, 0
  %41 = and i64 %.sroa.0.0.i, 4294967295
  %42 = and i64 %.09, 4294967295
  %43 = mul nuw i64 %41, %42
  %44 = lshr i64 %.09, 32
  %45 = mul nuw nsw i64 %41, %44
  %46 = lshr i64 %.sroa.0.0.i, 32
  %47 = mul nuw i64 %46, %42
  %48 = mul nuw nsw i64 %46, %44
  %49 = and i64 %45, 4294967295
  %50 = and i64 %47, 4294967295
  %51 = add nuw nsw i64 %49, %50
  %52 = lshr i64 %45, 32
  %53 = lshr i64 %47, 32
  %54 = lshr i64 %51, 32
  %55 = shl i64 %51, 32
  %56 = add i64 %55, %43
  %57 = icmp ult i64 %56, %55
  %58 = zext i1 %57 to i64
  %59 = mul i64 %.sroa.5.0.i, %.09
  %60 = add i64 %48, %59
  %61 = add i64 %60, %52
  %62 = add i64 %61, %53
  %spec.select.i.i.i = add i64 %62, %54
  %63 = add i64 %spec.select.i.i.i, %58
  br i1 %spec.select11.i, label %64, label %_ZNK20b3ConvexHullInternal6Int128mlEl.exit

64:                                               ; preds = %39
  %65 = sub nsw i64 0, %56
  %66 = xor i64 %63, -1
  %67 = icmp eq i64 %56, 0
  %68 = zext i1 %67 to i64
  %69 = add i64 %66, %68
  br label %_ZNK20b3ConvexHullInternal6Int128mlEl.exit

_ZNK20b3ConvexHullInternal6Int128mlEl.exit:       ; preds = %39, %64
  %.pn18.i = phi i64 [ %65, %64 ], [ %56, %39 ]
  %.pn.i = phi i64 [ %69, %64 ], [ %63, %39 ]
  %70 = getelementptr inbounds nuw i8, ptr %0, i64 8
  %71 = load i64, ptr %70, align 8, !tbaa !4
  %72 = icmp ult i64 %71, %.pn.i
  br i1 %72, label %_ZNK20b3ConvexHullInternal6Int1284ucmpERKS0_.exit, label %73

73:                                               ; preds = %_ZNK20b3ConvexHullInternal6Int128mlEl.exit
  %74 = icmp ugt i64 %71, %.pn.i
  br i1 %74, label %_ZNK20b3ConvexHullInternal6Int1284ucmpERKS0_.exit, label %75

75:                                               ; preds = %73
  %76 = load i64, ptr %0, align 8, !tbaa !22
  %77 = icmp ult i64 %76, %.pn18.i
  br i1 %77, label %_ZNK20b3ConvexHullInternal6Int1284ucmpERKS0_.exit, label %78

78:                                               ; preds = %75
  %79 = icmp ugt i64 %76, %.pn18.i
  %..i = zext i1 %79 to i32
  br label %_ZNK20b3ConvexHullInternal6Int1284ucmpERKS0_.exit

_ZNK20b3ConvexHullInternal6Int1284ucmpERKS0_.exit: ; preds = %_ZNK20b3ConvexHullInternal6Int128mlEl.exit, %73, %75, %78
  %.0.i = phi i32 [ -1, %_ZNK20b3ConvexHullInternal6Int128mlEl.exit ], [ 1, %73 ], [ -1, %75 ], [ %..i, %78 ]
  %80 = mul nsw i32 %28, %.0.i
  br label %81

81:                                               ; preds = %19, %23, %15, %_ZNK20b3ConvexHullInternal6Int1284ucmpERKS0_.exit, %6
  %.0 = phi i32 [ %12, %6 ], [ %80, %_ZNK20b3ConvexHullInternal6Int1284ucmpERKS0_.exit ], [ -1, %15 ], [ 1, %23 ], [ %22, %19 ]
  ret i32 %.0
}